target datalayout = "e-m:e-p270:32:32-p271:32:32-p272:64:64-i64:64-i128:128-f80:128-n8:16:32:64-S128"
target triple = "x86_64-unknown-linux-gnu"

@.str.1 = private unnamed_addr constant [37 x i8] c"../qemu/qapi/qobject-input-visitor.c\00", align 1
@.str.30 = private unnamed_addr constant [26 x i8] c"Parameter '%s' expects %s\00", align 1
@__func__.qobject_input_type_bool_keyval = private unnamed_addr constant [31 x i8] c"qobject_input_type_bool_keyval\00", align 1
@.str.38 = private unnamed_addr constant [14 x i8] c"'on' or 'off'\00", align 1

; Function Attrs: nounwind sspstrong uwtable
define internal ptr @full_name(ptr noundef %qiv, ptr noundef %name) #0 {
entry:
  %qiv.addr = alloca ptr, align 8
  %name.addr = alloca ptr, align 8
  store ptr %qiv, ptr %qiv.addr, align 8
  store ptr %name, ptr %name.addr, align 8
  %0 = load ptr, ptr %qiv.addr, align 8
  %1 = load ptr, ptr %name.addr, align 8
  %call = call ptr @full_name_nth(ptr noundef %0, ptr noundef %1, i32 noundef 0)
  ret ptr %call
}

; Function Attrs: nounwind sspstrong uwtable
define internal ptr @to_qiv(ptr noundef %v) #0 {
entry:
  %v.addr = alloca ptr, align 8
  %__mptr = alloca ptr, align 8
  %tmp = alloca ptr, align 8
  store ptr %v, ptr %v.addr, align 8
  %0 = load ptr, ptr %v.addr, align 8
  store ptr %0, ptr %__mptr, align 8
  %1 = load ptr, ptr %__mptr, align 8
  %add.ptr = getelementptr i8, ptr %1, i64 0
  store ptr %add.ptr, ptr %tmp, align 8
  %2 = load ptr, ptr %tmp, align 8
  ret ptr %2
}

; Function Attrs: nounwind sspstrong uwtable
define internal zeroext i1 @qobject_input_type_bool_keyval(ptr noundef %v, ptr noundef %name, ptr noundef %obj, ptr noundef %errp) #0 {
entry:
  %retval = alloca i1, align 1
  %v.addr = alloca ptr, align 8
  %name.addr = alloca ptr, align 8
  %obj.addr = alloca ptr, align 8
  %errp.addr = alloca ptr, align 8
  %qiv = alloca ptr, align 8
  %str = alloca ptr, align 8
  store ptr %v, ptr %v.addr, align 8
  store ptr %name, ptr %name.addr, align 8
  store ptr %obj, ptr %obj.addr, align 8
  store ptr %errp, ptr %errp.addr, align 8
  %0 = load ptr, ptr %v.addr, align 8
  %call = call ptr @to_qiv(ptr noundef %0)
  store ptr %call, ptr %qiv, align 8
  %1 = load ptr, ptr %qiv, align 8
  %2 = load ptr, ptr %name.addr, align 8
  %3 = load ptr, ptr %errp.addr, align 8
  %call1 = call ptr @qobject_input_get_keyval(ptr noundef %1, ptr noundef %2, ptr noundef %3)
  store ptr %call1, ptr %str, align 8
  %4 = load ptr, ptr %str, align 8
  %tobool = icmp ne ptr %4, null
  br i1 %tobool, label %if.end, label %if.then

if.then:                                          ; preds = %entry
  store i1 false, ptr %retval, align 1
  br label %return

if.end:                                           ; preds = %entry
  %5 = load ptr, ptr %name.addr, align 8
  %6 = load ptr, ptr %str, align 8
  %7 = load ptr, ptr %obj.addr, align 8
  %call2 = call zeroext i1 @qapi_bool_parse(ptr noundef %5, ptr noundef %6, ptr noundef %7, ptr noundef null)
  br i1 %call2, label %if.end5, label %if.then3

if.then3:                                         ; preds = %if.end
  %8 = load ptr, ptr %errp.addr, align 8
  %9 = load ptr, ptr %qiv, align 8
  %10 = load ptr, ptr %name.addr, align 8
  %call4 = call ptr @full_name(ptr noundef %9, ptr noundef %10)
  call void (ptr, ptr, i32, ptr, ptr, ...) @error_setg_internal(ptr noundef %8, ptr noundef @.str.1, i32 noundef 518, ptr noundef @__func__.qobject_input_type_bool_keyval, ptr noundef @.str.30, ptr noundef %call4, ptr noundef @.str.38)
  store i1 false, ptr %retval, align 1
  br label %return

if.end5:                                          ; preds = %if.end
  store i1 true, ptr %retval, align 1
  br label %return

return:                                           ; preds = %if.end5, %if.then3, %if.then
  %11 = load i1, ptr %retval, align 1
  ret i1 %11
}