; Function Attrs: nounwind sspstrong uwtable
define internal noundef zeroext i1 @qobject_input_type_bool_keyval(ptr noundef captures(none) %v, ptr noundef %name, ptr noundef %obj, ptr noundef %errp) #0 {
entry:
  %call1 = tail call fastcc ptr @qobject_input_get_keyval(ptr noundef %v, ptr noundef %name, ptr noundef %errp)
  %tobool.not = icmp eq ptr %call1, null
  br i1 %tobool.not, label %return, label %if.end

if.end:                                           ; preds = %entry
  %call2 = tail call zeroext i1 @qapi_bool_parse(ptr noundef %name, ptr noundef nonnull %call1, ptr noundef %obj, ptr noundef null) #8
  br i1 %call2, label %return, label %if.then3

if.then3:                                         ; preds = %if.end
  %call.i = tail call fastcc ptr @full_name_nth(ptr noundef %v, ptr noundef %name, i32 noundef 0)
  tail call void (ptr, ptr, i32, ptr, ptr, ...) @error_setg_internal(ptr noundef %errp, ptr noundef nonnull @.str.1, i32 noundef 518, ptr noundef nonnull @__func__.qobject_input_type_bool_keyval, ptr noundef nonnull @.str.30, ptr noundef %call.i, ptr noundef nonnull @.str.38) #8
  br label %return

return:                                           ; preds = %if.end, %entry, %if.then3
  %retval.0 = phi i1 [ false, %if.then3 ], [ false, %entry ], [ true, %if.end ]
  ret i1 %retval.0
}